target datalayout = "e-m:e-p270:32:32-p271:32:32-p272:64:64-i64:64-i128:128-f80:128-n8:16:32:64-S128"
target triple = "x86_64-pc-linux-gnu"

%struct.timespec = type { i64, i64 }
%struct.stat = type { i64, i64, i64, i32, i32, i32, i32, i64, i64, i64, i64, %struct.timespec, %struct.timespec, %struct.timespec, [3 x i64] }

; Function Attrs: mustprogress uwtable
define void @_ZN4File13StatToRarTimeER4statP7RarTimeS3_S3_(ptr noundef nonnull align 8 dereferenceable(144) %0, ptr noundef %1, ptr noundef %2, ptr noundef %3) #1 align 2 {
  %5 = alloca ptr, align 8
  %6 = alloca ptr, align 8
  %7 = alloca ptr, align 8
  %8 = alloca ptr, align 8
  store ptr %0, ptr %5, align 8
  store ptr %1, ptr %6, align 8
  store ptr %2, ptr %7, align 8
  store ptr %3, ptr %8, align 8
  %9 = load ptr, ptr %6, align 8
  %10 = icmp ne ptr %9, null
  br i1 %10, label %11, label %23

11:                                               ; preds = %4
  %12 = load ptr, ptr %6, align 8
  %13 = load ptr, ptr %5, align 8
  %14 = getelementptr inbounds %struct.stat, ptr %13, i32 0, i32 12
  %15 = getelementptr inbounds %struct.timespec, ptr %14, i32 0, i32 0
  %16 = load i64, ptr %15, align 8
  %17 = mul i64 %16, 1000000000
  %18 = load ptr, ptr %5, align 8
  %19 = getelementptr inbounds %struct.stat, ptr %18, i32 0, i32 12
  %20 = getelementptr inbounds %struct.timespec, ptr %19, i32 0, i32 1
  %21 = load i64, ptr %20, align 8
  %22 = add i64 %17, %21
  call void @_ZN7RarTime9SetUnixNSEm(ptr noundef nonnull align 8 dereferenceable(8) %12, i64 noundef %22)
  br label %23

23:                                               ; preds = %11, %4
  %24 = load ptr, ptr %7, align 8
  %25 = icmp ne ptr %24, null
  br i1 %25, label %26, label %38

26:                                               ; preds = %23
  %27 = load ptr, ptr %7, align 8
  %28 = load ptr, ptr %5, align 8
  %29 = getelementptr inbounds %struct.stat, ptr %28, i32 0, i32 13
  %30 = getelementptr inbounds %struct.timespec, ptr %29, i32 0, i32 0
  %31 = load i64, ptr %30, align 8
  %32 = mul i64 %31, 1000000000
  %33 = load ptr, ptr %5, align 8
  %34 = getelementptr inbounds %struct.stat, ptr %33, i32 0, i32 13
  %35 = getelementptr inbounds %struct.timespec, ptr %34, i32 0, i32 1
  %36 = load i64, ptr %35, align 8
  %37 = add i64 %32, %36
  call void @_ZN7RarTime9SetUnixNSEm(ptr noundef nonnull align 8 dereferenceable(8) %27, i64 noundef %37)
  br label %38

38:                                               ; preds = %26, %23
  %39 = load ptr, ptr %8, align 8
  %40 = icmp ne ptr %39, null
  br i1 %40, label %41, label %53

41:                                               ; preds = %38
  %42 = load ptr, ptr %8, align 8
  %43 = load ptr, ptr %5, align 8
  %44 = getelementptr inbounds %struct.stat, ptr %43, i32 0, i32 11
  %45 = getelementptr inbounds %struct.timespec, ptr %44, i32 0, i32 0
  %46 = load i64, ptr %45, align 8
  %47 = mul i64 %46, 1000000000
  %48 = load ptr, ptr %5, align 8
  %49 = getelementptr inbounds %struct.stat, ptr %48, i32 0, i32 11
  %50 = getelementptr inbounds %struct.timespec, ptr %49, i32 0, i32 1
  %51 = load i64, ptr %50, align 8
  %52 = add i64 %47, %51
  call void @_ZN7RarTime9SetUnixNSEm(ptr noundef nonnull align 8 dereferenceable(8) %42, i64 noundef %52)
  br label %53

53:                                               ; preds = %41, %38
  ret void
}