; Function Attrs: mustprogress uwtable
define void @_ZN4File13StatToRarTimeER4statP7RarTimeS3_S3_(ptr nocapture noundef nonnull readonly align 8 dereferenceable(144) %0, ptr noundef %1, ptr noundef %2, ptr noundef %3) local_unnamed_addr #2 align 2 {
  %.not = icmp eq ptr %1, null
  br i1 %.not, label %12, label %5

5:                                                ; preds = %4
  %6 = getelementptr inbounds i8, ptr %0, i64 88
  %7 = load i64, ptr %6, align 8
  %8 = mul i64 %7, 1000000000
  %9 = getelementptr inbounds i8, ptr %0, i64 96
  %10 = load i64, ptr %9, align 8
  %11 = add i64 %8, %10
  tail call void @_ZN7RarTime9SetUnixNSEm(ptr noundef nonnull align 8 dereferenceable(8) %1, i64 noundef %11)
  br label %12

12:                                               ; preds = %5, %4
  %.not14 = icmp eq ptr %2, null
  br i1 %.not14, label %20, label %13

13:                                               ; preds = %12
  %14 = getelementptr inbounds i8, ptr %0, i64 104
  %15 = load i64, ptr %14, align 8
  %16 = mul i64 %15, 1000000000
  %17 = getelementptr inbounds i8, ptr %0, i64 112
  %18 = load i64, ptr %17, align 8
  %19 = add i64 %16, %18
  tail call void @_ZN7RarTime9SetUnixNSEm(ptr noundef nonnull align 8 dereferenceable(8) %2, i64 noundef %19)
  br label %20

20:                                               ; preds = %13, %12
  %.not15 = icmp eq ptr %3, null
  br i1 %.not15, label %28, label %21

21:                                               ; preds = %20
  %22 = getelementptr inbounds i8, ptr %0, i64 72
  %23 = load i64, ptr %22, align 8
  %24 = mul i64 %23, 1000000000
  %25 = getelementptr inbounds i8, ptr %0, i64 80
  %26 = load i64, ptr %25, align 8
  %27 = add i64 %24, %26
  tail call void @_ZN7RarTime9SetUnixNSEm(ptr noundef nonnull align 8 dereferenceable(8) %3, i64 noundef %27)
  br label %28

28:                                               ; preds = %21, %20
  ret void
}